; Function Attrs: nounwind uwtable
define dso_local ptr @xdg_config_home_for(ptr noundef %0, ptr noundef %1) local_unnamed_addr #3 {
  %3 = tail call ptr @getenv(ptr noundef nonnull @.str.22) #29
  %.not = icmp eq ptr %3, null
  br i1 %.not, label %8, label %4

4:                                                ; preds = %2
  %5 = load i8, ptr %3, align 1, !tbaa !14
  %.not12 = icmp eq i8 %5, 0
  br i1 %.not12, label %8, label %6

6:                                                ; preds = %4
  %7 = tail call ptr (ptr, ...) @mkpathdup(ptr noundef nonnull @.str.23, ptr noundef nonnull %3, ptr noundef %0, ptr noundef %1)
  br label %12

8:                                                ; preds = %4, %2
  %9 = tail call ptr @getenv(ptr noundef nonnull @.str.4) #29
  %.not13 = icmp eq ptr %9, null
  br i1 %.not13, label %12, label %10

10:                                               ; preds = %8
  %11 = tail call ptr (ptr, ...) @mkpathdup(ptr noundef nonnull @.str.24, ptr noundef nonnull %9, ptr noundef %0, ptr noundef %1)
  br label %12

12:                                               ; preds = %8, %10, %6
  %.0 = phi ptr [ %7, %6 ], [ %11, %10 ], [ null, %8 ]
  ret ptr %.0
}